; Function Attrs: mustprogress uwtable
define void @_ZN6casadi10ConstantMXC2ERKNS_8SparsityE(ptr noundef nonnull align 8 dereferenceable(64) %0, ptr noundef nonnull align 8 dereferenceable(8) %1) unnamed_addr #3 align 2 personality ptr @__gxx_personality_v0 {
  tail call void @_ZN6casadi6MXNodeC2Ev(ptr noundef nonnull align 8 dereferenceable(64) %0)
  store ptr getelementptr inbounds ({ [108 x ptr] }, ptr @_ZTVN6casadi10ConstantMXE, i64 0, i32 0, i64 2), ptr %0, align 8
  invoke void @_ZN6casadi6MXNode12set_sparsityERKNS_8SparsityE(ptr noundef nonnull align 8 dereferenceable(64) %0, ptr noundef nonnull align 8 dereferenceable(8) %1)
          to label %3 unwind label %4

3:                                                ; preds = %2
  ret void

4:                                                ; preds = %2
  %5 = landingpad { ptr, i32 }
          cleanup
  tail call void @_ZN6casadi6MXNodeD2Ev(ptr noundef nonnull align 8 dereferenceable(64) %0) #25
  resume { ptr, i32 } %5
}